target datalayout = "e-m:e-p270:32:32-p271:32:32-p272:64:64-i64:64-i128:128-f80:128-n8:16:32:64-S128"
target triple = "x86_64-pc-linux-gnu"

%struct.pmix_cpuset_t = type { ptr, ptr }

@.str = private unnamed_addr constant [6 x i8] c"hwloc\00", align 1

; Function Attrs: nounwind uwtable
define ptr @pmix_hwloc_print_cpuset(ptr noundef %0) #0 {
  %2 = alloca ptr, align 8
  %3 = alloca ptr, align 8
  %4 = alloca ptr, align 8
  %5 = alloca i32, align 4
  store ptr %0, ptr %3, align 8, !tbaa !3
  call void @llvm.lifetime.start.p0(i64 8, ptr %4) #8
  %6 = load ptr, ptr %3, align 8, !tbaa !3
  %7 = getelementptr inbounds nuw %struct.pmix_cpuset_t, ptr %6, i32 0, i32 0
  %8 = load ptr, ptr %7, align 8, !tbaa !19
  %9 = icmp eq ptr null, %8
  br i1 %9, label %16, label %10

10:                                               ; preds = %1
  %11 = load ptr, ptr %3, align 8, !tbaa !3
  %12 = getelementptr inbounds nuw %struct.pmix_cpuset_t, ptr %11, i32 0, i32 0
  %13 = load ptr, ptr %12, align 8, !tbaa !19
  %14 = call i32 @strncasecmp(ptr noundef %13, ptr noundef @.str, i64 noundef 5) #9
  %15 = icmp ne i32 0, %14
  br i1 %15, label %16, label %17

16:                                               ; preds = %10, %1
  store ptr null, ptr %2, align 8
  store i32 1, ptr %5, align 4
  br label %32

17:                                               ; preds = %10
  %18 = load ptr, ptr %3, align 8, !tbaa !3
  %19 = getelementptr inbounds nuw %struct.pmix_cpuset_t, ptr %18, i32 0, i32 1
  %20 = load ptr, ptr %19, align 8, !tbaa !21
  %21 = icmp eq ptr null, %20
  br i1 %21, label %22, label %23

22:                                               ; preds = %17
  store ptr null, ptr %2, align 8
  store i32 1, ptr %5, align 4
  br label %32

23:                                               ; preds = %17
  %24 = load ptr, ptr %3, align 8, !tbaa !3
  %25 = getelementptr inbounds nuw %struct.pmix_cpuset_t, ptr %24, i32 0, i32 1
  %26 = load ptr, ptr %25, align 8, !tbaa !21
  %27 = call i32 @hwloc_bitmap_list_asprintf(ptr noundef %4, ptr noundef %26)
  %28 = icmp ne i32 0, %27
  br i1 %28, label %29, label %30

29:                                               ; preds = %23
  store ptr null, ptr %2, align 8
  store i32 1, ptr %5, align 4
  br label %32

30:                                               ; preds = %23
  %31 = load ptr, ptr %4, align 8, !tbaa !9
  store ptr %31, ptr %2, align 8
  store i32 1, ptr %5, align 4
  br label %32

32:                                               ; preds = %30, %29, %22, %16
  call void @llvm.lifetime.end.p0(i64 8, ptr %4) #8
  %33 = load ptr, ptr %2, align 8
  ret ptr %33
}