; Function Attrs: nounwind uwtable
define ptr @pmix_hwloc_print_cpuset(ptr noundef readonly captures(none) %0) local_unnamed_addr #0 {
  %2 = alloca ptr, align 8
  call void @llvm.lifetime.start.p0(i64 8, ptr nonnull %2) #7
  %3 = load ptr, ptr %0, align 8, !tbaa !21
  %4 = icmp eq ptr %3, null
  br i1 %4, label %14, label %5

5:                                                ; preds = %1
  %6 = tail call i32 @strncasecmp(ptr noundef nonnull %3, ptr noundef nonnull @.str, i64 noundef 5) #8
  %.not = icmp eq i32 %6, 0
  br i1 %.not, label %7, label %14

7:                                                ; preds = %5
  %8 = getelementptr inbounds nuw i8, ptr %0, i64 8
  %9 = load ptr, ptr %8, align 8, !tbaa !23
  %10 = icmp eq ptr %9, null
  br i1 %10, label %14, label %11

11:                                               ; preds = %7
  %12 = call i32 @hwloc_bitmap_list_asprintf(ptr noundef nonnull %2, ptr noundef nonnull %9) #7
  %.not7 = icmp eq i32 %12, 0
  %13 = load ptr, ptr %2, align 8
  %spec.select = select i1 %.not7, ptr %13, ptr null
  br label %14

14:                                               ; preds = %11, %7, %1, %5
  %.0 = phi ptr [ null, %5 ], [ null, %1 ], [ null, %7 ], [ %spec.select, %11 ]
  call void @llvm.lifetime.end.p0(i64 8, ptr nonnull %2) #7
  ret ptr %.0
}